BL51 BANKED LINKER/LOCATER V4.02                                                        12/09/2014  20:25:41  PAGE 1


BL51 BANKED LINKER/LOCATER V4.02, INVOKED BY:
C:\KEIL\C51\BIN\BL51.EXE joelject.obj TO test


MEMORY MODEL: SMALL


INPUT MODULES INCLUDED:
  joelject.obj (JOELJECT)
  C:\KEIL\C51\LIB\C51S.LIB (?C_STARTUP)
  C:\KEIL\C51\LIB\C51S.LIB (?C?SIDIV)
  C:\KEIL\C51\LIB\C51S.LIB (?C?SLCMP)
  C:\KEIL\C51\LIB\C51S.LIB (RAND)
  C:\KEIL\C51\LIB\C51S.LIB (?C_INIT)
  C:\KEIL\C51\LIB\C51S.LIB (?C?UIDIV)


LINK MAP OF MODULE:  test (JOELJECT)


            TYPE    BASE      LENGTH    RELOCATION   SEGMENT NAME
            -----------------------------------------------------

            * * * * * * *   D A T A   M E M O R Y   * * * * * * *
            REG     0000H     0008H     ABSOLUTE     "REG BANK 0"
            DATA    0008H     000CH     UNIT         _DATA_GROUP_
            DATA    0014H     000AH     UNIT         ?DT?JOELJECT
                    001EH     0002H                  *** GAP ***
            BIT     0020H.0   0000H.2   UNIT         ?BI?JOELJECT
                    0020H.2   0000H.6                *** GAP ***
            DATA    0021H     0004H     UNIT         ?DT?RAND?RAND
            IDATA   0025H     0001H     UNIT         ?STACK

            * * * * * * *   C O D E   M E M O R Y   * * * * * * *
            CODE    0000H     0003H     ABSOLUTE     
            CODE    0003H     0008H     UNIT         ?PR?_PLAYBREATH?JOELJECT
            CODE    000BH     0003H     ABSOLUTE     
            CODE    000EH     000BH     UNIT         ?PR?_PLAYG6?JOELJECT
                    0019H     0002H                  *** GAP ***
            CODE    001BH     0003H     ABSOLUTE     
            CODE    001EH     0221H     UNIT         ?PR?GAME3?JOELJECT
            CODE    023FH     0119H     UNIT         ?PR?PLAYSONG?JOELJECT
            CODE    0358H     0112H     UNIT         ?PR?GAME2?JOELJECT
            CODE    046AH     0109H     UNIT         ?PR?_G1COMPARE?JOELJECT
            CODE    0573H     00C7H     UNIT         ?PR?GAME1?JOELJECT
            CODE    063AH     00A1H     UNIT         ?C?LIB_CODE
            CODE    06DBH     008CH     UNIT         ?C_C51STARTUP
            CODE    0767H     0056H     UNIT         ?PR?MAIN?JOELJECT
            CODE    07BDH     0041H     UNIT         ?PR?RAND?RAND
            CODE    07FEH     003FH     UNIT         ?PR?_DURLAY?JOELJECT
            CODE    083DH     0034H     UNIT         ?PR?_SIXTEENTH?JOELJECT
            CODE    0871H     0026H     UNIT         ?PR?BUZZ?JOELJECT
            CODE    0897H     0026H     UNIT         ?PR?BUZZWIN?JOELJECT
            CODE    08BDH     0013H     UNIT         ?PR?ALLON?JOELJECT
            CODE    08D0H     0013H     UNIT         ?PR?ALLOFF?JOELJECT
            CODE    08E3H     000EH     UNIT         ?PR?_PLAYC6?JOELJECT
            CODE    08F1H     000EH     UNIT         ?PR?_PLAYD6?JOELJECT
            CODE    08FFH     000EH     UNIT         ?PR?_PLAYF6?JOELJECT
BL51 BANKED LINKER/LOCATER V4.02                                                      12/09/2014  20:25:41  PAGE 2


            CODE    090DH     000EH     UNIT         ?PR?_PLAYE6?JOELJECT
            CODE    091BH     000BH     UNIT         ?PR?_PLAYA6?JOELJECT
            CODE    0926H     0009H     UNIT         ?PR?T_ISR?JOELJECT
            CODE    092FH     0008H     UNIT         ?PR?PLAYREST?JOELJECT
            CODE    0937H     0005H     UNIT         ?C_INITSEG
            CODE    093CH     0003H     UNIT         ?PR?T1_ISR?JOELJECT



OVERLAY MAP OF MODULE:   test (JOELJECT)


SEGMENT                            DATA_GROUP 
  +--> CALLED SEGMENT            START    LENGTH
------------------------------------------------
?C_C51STARTUP                    -----    -----
  +--> ?PR?MAIN?JOELJECT
  +--> ?C_INITSEG

?PR?MAIN?JOELJECT                -----    -----
  +--> ?PR?RAND?RAND
  +--> ?PR?PLAYSONG?JOELJECT
  +--> ?PR?ALLON?JOELJECT
  +--> ?PR?_DURLAY?JOELJECT
  +--> ?PR?ALLOFF?JOELJECT
  +--> ?PR?GAME1?JOELJECT
  +--> ?PR?GAME2?JOELJECT
  +--> ?PR?GAME3?JOELJECT

?PR?PLAYSONG?JOELJECT            -----    -----
  +--> ?PR?_PLAYC6?JOELJECT
  +--> ?PR?_PLAYBREATH?JOELJECT
  +--> ?PR?_PLAYG6?JOELJECT
  +--> ?PR?_PLAYA6?JOELJECT
  +--> ?PR?_PLAYF6?JOELJECT
  +--> ?PR?_PLAYE6?JOELJECT
  +--> ?PR?_PLAYD6?JOELJECT
  +--> ?PR?PLAYREST?JOELJECT

?PR?_PLAYC6?JOELJECT             -----    -----
  +--> ?PR?_SIXTEENTH?JOELJECT

?PR?_PLAYBREATH?JOELJECT         -----    -----
  +--> ?PR?_SIXTEENTH?JOELJECT

?PR?_PLAYG6?JOELJECT             -----    -----
  +--> ?PR?_SIXTEENTH?JOELJECT

?PR?_PLAYA6?JOELJECT             -----    -----
  +--> ?PR?_SIXTEENTH?JOELJECT

?PR?_PLAYF6?JOELJECT             -----    -----
  +--> ?PR?_SIXTEENTH?JOELJECT

?PR?_PLAYE6?JOELJECT             -----    -----
  +--> ?PR?_SIXTEENTH?JOELJECT

BL51 BANKED LINKER/LOCATER V4.02                                                      12/09/2014  20:25:41  PAGE 3


?PR?_PLAYD6?JOELJECT             -----    -----
  +--> ?PR?_SIXTEENTH?JOELJECT

?PR?_DURLAY?JOELJECT             000FH    0005H

?PR?GAME1?JOELJECT               -----    -----
  +--> ?PR?RAND?RAND
  +--> ?PR?_DURLAY?JOELJECT
  +--> ?PR?ALLOFF?JOELJECT
  +--> ?PR?ALLON?JOELJECT
  +--> ?PR?_G1COMPARE?JOELJECT

?PR?_G1COMPARE?JOELJECT          0008H    0007H
  +--> ?PR?ALLON?JOELJECT
  +--> ?PR?_DURLAY?JOELJECT
  +--> ?PR?ALLOFF?JOELJECT

?PR?GAME2?JOELJECT               0008H    0004H
  +--> ?PR?_DURLAY?JOELJECT
  +--> ?PR?RAND?RAND
  +--> ?PR?ALLON?JOELJECT
  +--> ?PR?ALLOFF?JOELJECT

?PR?GAME3?JOELJECT               -----    -----
  +--> ?PR?RAND?RAND
  +--> ?PR?ALLOFF?JOELJECT
  +--> ?PR?_DURLAY?JOELJECT
  +--> ?PR?BUZZWIN?JOELJECT
  +--> ?PR?BUZZ?JOELJECT

?PR?BUZZWIN?JOELJECT             0008H    0002H
  +--> ?PR?_DURLAY?JOELJECT

?PR?BUZZ?JOELJECT                0008H    0002H
  +--> ?PR?_DURLAY?JOELJECT



SYMBOL TABLE OF MODULE:  test (JOELJECT)

  VALUE           TYPE          NAME
  ----------------------------------

  -------         MODULE        JOELJECT
  C:0000H         SYMBOL        _ICE_DUMMY_
  D:0084H         PUBLIC        P0M1
  D:0091H         PUBLIC        P1M1
  D:0080H         PUBLIC        P0
  D:00A4H         PUBLIC        P2M1
  D:0090H         PUBLIC        P1
  D:0014H         PUBLIC        R0
  B:00D8H.2       PUBLIC        AA
  D:00A0H         PUBLIC        P2
  D:0015H         PUBLIC        R1
  D:00B0H         PUBLIC        P3
  D:0016H         PUBLIC        R2
  B:0090H.2       PUBLIC        T0
BL51 BANKED LINKER/LOCATER V4.02                                                      12/09/2014  20:25:41  PAGE 4


  B:00E8H.0       PUBLIC        EI2C
  B:00D0H.6       PUBLIC        AC
  D:0017H         PUBLIC        R3
  B:0080H.7       PUBLIC        T1
  D:0018H         PUBLIC        R4
  B:00A8H.7       PUBLIC        EA
  D:0019H         PUBLIC        current
  B:00E8H.2       PUBLIC        EC
  B:00A8H.6       PUBLIC        EWDRT
  B:00C8H.6       PUBLIC        HLTRN
  B:0098H.7       PUBLIC        FE
  B:00A0H.4       PUBLIC        RED1
  D:00A8H         PUBLIC        IEN0
  B:0090H.7       PUBLIC        SPEAKER
  B:0080H.4       PUBLIC        RED2
  D:00E8H         PUBLIC        IEN1
  B:0090H.1       PUBLIC        RxD
  B:00D8H.6       PUBLIC        I2EN
  C:091BH         PUBLIC        _playA6
  B:00A0H.5       PUBLIC        YELLOW1
  B:0080H.5       PUBLIC        YELLOW2
  B:0090H.0       PUBLIC        TxD
  C:08E3H         PUBLIC        _playC6
  C:08F1H         PUBLIC        _playD6
  B:00B8H.6       PUBLIC        PWDRT
  C:090DH         PUBLIC        _playE6
  C:08FFH         PUBLIC        _playF6
  C:000EH         PUBLIC        _playG6
  B:00C8H.0       PUBLIC        TMOD20
  B:00A8H.4       PUBLIC        ES
  C:08BDH         PUBLIC        allon
  B:00C8H.1       PUBLIC        TMOD21
  B:00E8H.7       PUBLIC        EIEE
  B:0080H.6       PUBLIC        AMBER1
  B:00A0H.6       PUBLIC        AMBER2
  B:0098H.0       PUBLIC        RI
  B:0090H.3       PUBLIC        INT0
  B:00D8H.3       PUBLIC        SI
  B:00E8H.1       PUBLIC        EKBI
  B:00D0H.7       PUBLIC        CY
  B:0090H.4       PUBLIC        INT1
  B:0098H.1       PUBLIC        TI
  C:0897H         PUBLIC        buzzwin
  B:00E8H.4       PUBLIC        ECCU
  C:0926H         PUBLIC        T_ISR
  B:00B8H.4       PUBLIC        PS
  B:0080H.7       PUBLIC        GREEN1
  B:00A0H.7       PUBLIC        GREEN2
  B:00D0H.2       PUBLIC        OV
  B:00A0H.4       PUBLIC        SS
  C:0767H         PUBLIC        main
  B:0090H.6       PUBLIC        BLUE
  B:00E8H.3       PUBLIC        ESPI
  D:0098H         PUBLIC        SCON
  D:0089H         PUBLIC        TMOD
  D:0088H         PUBLIC        TCON
  B:00A0H.2       PUBLIC        MOSI
BL51 BANKED LINKER/LOCATER V4.02                                                      12/09/2014  20:25:41  PAGE 5


  B:00A0H.3       PUBLIC        MISO
  B:0020H.0       PUBLIC        exit
  B:0080H.0       PUBLIC        KB0
  B:0080H.1       PUBLIC        KB1
  B:0088H.1       PUBLIC        IE0
  B:0080H.2       PUBLIC        KB2
  B:0088H.3       PUBLIC        IE1
  B:0080H.3       PUBLIC        KB3
  B:0080H.4       PUBLIC        KB4
  C:0845H         PUBLIC        _sixteenth
  B:0080H.5       PUBLIC        KB5
  B:00B8H.5       PUBLIC        PB0
  B:0080H.6       PUBLIC        KB6
  B:0080H.7       PUBLIC        KB7
  B:00A0H.5       PUBLIC        SPICLK
  B:00A8H.1       PUBLIC        ET0
  D:00B8H         PUBLIC        IP0
  B:00A8H.3       PUBLIC        ET1
  B:0088H.5       PUBLIC        TF0
  B:0088H.7       PUBLIC        TF1
  B:0098H.2       PUBLIC        RB8
  D:00C8H         PUBLIC        TCR20
  D:008CH         PUBLIC        TH0
  C:0871H         PUBLIC        buzz
  C:0573H         PUBLIC        game1
  B:00A0H.7       PUBLIC        ICA
  B:00A8H.0       PUBLIC        EX0
  B:0088H.0       PUBLIC        IT0
  D:008DH         PUBLIC        TH1
  C:0358H         PUBLIC        game2
  B:00A0H.0       PUBLIC        ICB
  B:0098H.3       PUBLIC        TB8
  B:00A8H.2       PUBLIC        EX1
  B:0088H.2       PUBLIC        IT1
  D:001AH         PUBLIC        win
  C:001EH         PUBLIC        game3
  B:00D0H.0       PUBLIC        P
  B:0098H.7       PUBLIC        SM0
  D:008AH         PUBLIC        TL0
  B:0098H.6       PUBLIC        SM1
  D:008BH         PUBLIC        TL1
  C:023FH         PUBLIC        playSong
  B:0098H.5       PUBLIC        SM2
  B:00A0H.6       PUBLIC        OCA
  C:093CH         PUBLIC        T1_ISR
  B:0090H.6       PUBLIC        OCB
  B:00B8H.1       PUBLIC        PT0
  B:0090H.7       PUBLIC        OCC
  B:00B8H.3       PUBLIC        PT1
  B:00D0H.3       PUBLIC        RS0
  B:00A0H.1       PUBLIC        OCD
  B:00A8H.5       PUBLIC        EBO
  B:0088H.4       PUBLIC        TR0
  B:00D0H.4       PUBLIC        RS1
  B:0088H.6       PUBLIC        TR1
  B:0090H.3       PUBLIC        SDA
  B:00B8H.0       PUBLIC        PX0
BL51 BANKED LINKER/LOCATER V4.02                                                      12/09/2014  20:25:41  PAGE 6


  B:00B8H.2       PUBLIC        PX1
  B:00A0H.0       PUBLIC        SW1
  B:0080H.2       PUBLIC        SW2
  D:00D8H         PUBLIC        I2CON
  B:00A0H.1       PUBLIC        SW3
  B:0080H.1       PUBLIC        SW4
  B:0090H.4       PUBLIC        SW5
  B:0080H.3       PUBLIC        SW6
  B:00A0H.3       PUBLIC        SW7
  B:0080H.0       PUBLIC        SW8
  B:0090H.2       PUBLIC        SCL
  B:00A0H.2       PUBLIC        SW9
  C:046AH         PUBLIC        _g1compare
  B:00C8H.3       PUBLIC        ALTAB
  B:0098H.4       PUBLIC        REN
  B:00C8H.2       PUBLIC        TDIR2
  B:00D8H.5       PUBLIC        STA
  B:00C8H.4       PUBLIC        ALTCD
  B:00A8H.4       PUBLIC        ESR
  B:00B0H.1       PUBLIC        XTAL1
  B:00B0H.0       PUBLIC        XTAL2
  B:00E8H.6       PUBLIC        EST
  B:0020H.1       PUBLIC        donesig
  C:0003H         PUBLIC        _playBreath
  C:0802H         PUBLIC        _durlay
  B:00C8H.7       PUBLIC        PLEEN
  B:00B8H.4       PUBLIC        PSR
  B:00D0H.5       PUBLIC        F0
  B:00D8H.4       PUBLIC        STO
  B:00D0H.1       PUBLIC        F1
  D:001BH         PUBLIC        attempts
  C:08D0H         PUBLIC        alloff
  C:092FH         PUBLIC        playREST
  D:001CH         PUBLIC        randnum
  B:0090H.5       PUBLIC        RST
  B:00D8H.0       PUBLIC        CRSEL
  D:00D0H         PUBLIC        PSW
  D:001DH         PUBLIC        guessnum
  B:00C8H.5       PUBLIC        HLTEN
  -------         PROC          T_ISR
  C:0926H         LINE#         188
  C:0926H         LINE#         190
  C:0928H         LINE#         191
  C:092BH         LINE#         192
  C:092EH         LINE#         194
  -------         ENDPROC       T_ISR
  -------         PROC          T1_ISR
  C:093CH         LINE#         196
  C:093CH         LINE#         198
  C:093EH         LINE#         200
  -------         ENDPROC       T1_ISR
  -------         PROC          MAIN
  C:0767H         LINE#         202
  C:0767H         LINE#         203
  C:0767H         LINE#         204
  C:076DH         LINE#         205
  C:0770H         LINE#         206
BL51 BANKED LINKER/LOCATER V4.02                                                      12/09/2014  20:25:41  PAGE 7


  C:0772H         LINE#         207
  C:0774H         LINE#         208
  C:0777H         LINE#         209
  C:0779H         LINE#         210
  C:077BH         LINE#         211
  C:077DH         LINE#         212
  C:077FH         LINE#         213
  C:0782H         LINE#         214
  C:0782H         LINE#         215
  C:0782H         LINE#         216
  C:0785H         LINE#         218
  C:0788H         LINE#         219
  C:0788H         LINE#         221
  C:0788H         LINE#         222
  C:078DH         LINE#         223
  C:0790H         LINE#         225
  C:0793H         LINE#         226
  C:0796H         LINE#         227
  C:0796H         LINE#         229
  C:0799H         LINE#         230
  C:0799H         LINE#         232
  C:0799H         LINE#         233
  C:079EH         LINE#         234
  C:07A1H         LINE#         235
  C:07A4H         LINE#         236
  C:07A7H         LINE#         237
  C:07A7H         LINE#         239
  C:07AAH         LINE#         240
  C:07AAH         LINE#         242
  C:07AAH         LINE#         243
  C:07AFH         LINE#         244
  C:07B2H         LINE#         245
  C:07B5H         LINE#         246
  C:07B8H         LINE#         247
  C:07B8H         LINE#         249
  C:07BBH         LINE#         250
  -------         ENDPROC       MAIN
  -------         PROC          PLAYSONG
  C:023FH         LINE#         255
  C:023FH         LINE#         256
  C:023FH         LINE#         257
  C:0244H         LINE#         258
  C:0249H         LINE#         259
  C:024EH         LINE#         260
  C:0253H         LINE#         261
  C:0258H         LINE#         262
  C:025DH         LINE#         263
  C:0262H         LINE#         264
  C:0267H         LINE#         265
  C:026CH         LINE#         266
  C:0271H         LINE#         267
  C:0276H         LINE#         268
  C:027BH         LINE#         269
  C:0280H         LINE#         270
  C:0285H         LINE#         271
  C:028AH         LINE#         272
  C:028FH         LINE#         273
BL51 BANKED LINKER/LOCATER V4.02                                                      12/09/2014  20:25:41  PAGE 8


  C:0294H         LINE#         274
  C:0299H         LINE#         275
  C:029EH         LINE#         276
  C:02A3H         LINE#         277
  C:02A8H         LINE#         278
  C:02ADH         LINE#         279
  C:02B2H         LINE#         280
  C:02B7H         LINE#         281
  C:02BCH         LINE#         282
  C:02C1H         LINE#         283
  C:02C6H         LINE#         284
  C:02CBH         LINE#         285
  C:02D0H         LINE#         286
  C:02D5H         LINE#         287
  C:02DAH         LINE#         288
  C:02DFH         LINE#         289
  C:02E4H         LINE#         290
  C:02E9H         LINE#         291
  C:02EEH         LINE#         292
  C:02F3H         LINE#         293
  C:02F8H         LINE#         294
  C:02FDH         LINE#         295
  C:0302H         LINE#         296
  C:0307H         LINE#         297
  C:030CH         LINE#         298
  C:0311H         LINE#         299
  C:0316H         LINE#         300
  C:031BH         LINE#         301
  C:0320H         LINE#         302
  C:0325H         LINE#         303
  C:032AH         LINE#         304
  C:032FH         LINE#         305
  C:0334H         LINE#         306
  C:0339H         LINE#         307
  C:033EH         LINE#         308
  C:0343H         LINE#         309
  C:0348H         LINE#         310
  C:034DH         LINE#         311
  C:0352H         LINE#         340
  C:0355H         LINE#         341
  C:0357H         LINE#         342
  -------         ENDPROC       PLAYSONG
  -------         PROC          ALLON
  C:08BDH         LINE#         344
  C:08BDH         LINE#         345
  C:08BDH         LINE#         346
  C:08BFH         LINE#         347
  C:08C1H         LINE#         348
  C:08C3H         LINE#         349
  C:08C5H         LINE#         350
  C:08C7H         LINE#         351
  C:08C9H         LINE#         352
  C:08CBH         LINE#         353
  C:08CDH         LINE#         354
  C:08CFH         LINE#         355
  -------         ENDPROC       ALLON
  -------         PROC          ALLOFF
BL51 BANKED LINKER/LOCATER V4.02                                                      12/09/2014  20:25:41  PAGE 9


  C:08D0H         LINE#         357
  C:08D0H         LINE#         358
  C:08D0H         LINE#         359
  C:08D2H         LINE#         360
  C:08D4H         LINE#         361
  C:08D6H         LINE#         362
  C:08D8H         LINE#         363
  C:08DAH         LINE#         364
  C:08DCH         LINE#         365
  C:08DEH         LINE#         366
  C:08E0H         LINE#         367
  C:08E2H         LINE#         368
  -------         ENDPROC       ALLOFF
  -------         PROC          _PLAYC6
  D:0007H         SYMBOL        durC
  C:08E3H         LINE#         370
  C:08E3H         LINE#         371
  C:08E3H         LINE#         372
  C:08E5H         LINE#         373
  C:08E8H         LINE#         374
  C:08EBH         LINE#         375
  C:08EEH         LINE#         376
  C:08F0H         LINE#         378
  -------         ENDPROC       _PLAYC6
  -------         PROC          _PLAYD6
  D:0007H         SYMBOL        durD
  C:08F1H         LINE#         380
  C:08F1H         LINE#         381
  C:08F1H         LINE#         382
  C:08F3H         LINE#         383
  C:08F6H         LINE#         384
  C:08F9H         LINE#         385
  C:08FCH         LINE#         386
  C:08FEH         LINE#         388
  -------         ENDPROC       _PLAYD6
  -------         PROC          _PLAYF6
  D:0007H         SYMBOL        durD
  C:08FFH         LINE#         390
  C:08FFH         LINE#         391
  C:08FFH         LINE#         392
  C:0901H         LINE#         393
  C:0904H         LINE#         394
  C:0907H         LINE#         395
  C:090AH         LINE#         396
  C:090CH         LINE#         398
  -------         ENDPROC       _PLAYF6
  -------         PROC          _PLAYG6
  D:0007H         SYMBOL        durD
  C:000EH         LINE#         400
  C:000EH         LINE#         401
  C:000EH         LINE#         402
  C:0010H         LINE#         403
  C:0013H         LINE#         404
  C:0013H         LINE#         405
  C:0016H         LINE#         406
  C:0018H         LINE#         408
  -------         ENDPROC       _PLAYG6
BL51 BANKED LINKER/LOCATER V4.02                                                      12/09/2014  20:25:41  PAGE 10


  -------         PROC          _PLAYA6
  D:0007H         SYMBOL        durD
  C:091BH         LINE#         410
  C:091BH         LINE#         411
  C:091BH         LINE#         412
  C:091DH         LINE#         413
  C:0920H         LINE#         414
  C:0920H         LINE#         415
  C:0923H         LINE#         416
  C:0925H         LINE#         418
  -------         ENDPROC       _PLAYA6
  -------         PROC          _PLAYE6
  D:0007H         SYMBOL        durD
  C:090DH         LINE#         420
  C:090DH         LINE#         421
  C:090DH         LINE#         422
  C:090FH         LINE#         423
  C:0912H         LINE#         424
  C:0915H         LINE#         425
  C:0918H         LINE#         426
  C:091AH         LINE#         428
  -------         ENDPROC       _PLAYE6
  -------         PROC          _PLAYBREATH
  D:0007H         SYMBOL        durD
  C:0003H         LINE#         430
  C:0003H         LINE#         431
  C:0003H         LINE#         432
  C:0005H         LINE#         433
  C:0008H         LINE#         434
  C:000AH         LINE#         436
  -------         ENDPROC       _PLAYBREATH
  -------         PROC          PLAYREST
  C:092FH         LINE#         438
  C:092FH         LINE#         439
  C:092FH         LINE#         440
  C:0932H         LINE#         441
  C:0934H         LINE#         442
  C:0936H         LINE#         444
  -------         ENDPROC       PLAYREST
  -------         PROC          L?0234
  -------         ENDPROC       L?0234
  -------         PROC          _DURLAY
  D:000FH         SYMBOL        x
  -------         DO            x
  D:0010H         SYMBOL        i
  -------         ENDDO         i
  C:0802H         LINE#         446
  C:0804H         LINE#         447
  C:0804H         LINE#         448
  C:080DH         LINE#         449
  C:083CH         LINE#         450
  -------         ENDPROC       _DURLAY
  -------         PROC          L?0232
  -------         ENDPROC       L?0232
  -------         PROC          _SIXTEENTH
  D:0006H         SYMBOL        mulofsixteenth
  -------         DO            mulofsixteenth
BL51 BANKED LINKER/LOCATER V4.02                                                      12/09/2014  20:25:41  PAGE 11


  D:0004H         SYMBOL        psych
  -------         ENDDO         psych
  C:0845H         LINE#         452
  C:0845H         LINE#         453
  C:0845H         LINE#         454
  C:0848H         LINE#         455
  C:0855H         LINE#         456
  C:0855H         LINE#         457
  C:0857H         LINE#         458
  C:085AH         LINE#         459
  C:085DH         LINE#         460
  C:0860H         LINE#         461
  C:0862H         LINE#         462
  C:0865H         LINE#         463
  C:0867H         LINE#         464
  C:0869H         LINE#         465
  C:0870H         LINE#         466
  -------         ENDPROC       _SIXTEENTH
  -------         PROC          GAME1
  C:0573H         LINE#         471
  C:0573H         LINE#         472
  C:0573H         LINE#         473
  C:057FH         LINE#         474
  C:0582H         LINE#         475
  C:0584H         LINE#         477
  C:0584H         LINE#         478
  C:0586H         LINE#         479
  C:0588H         LINE#         480
  C:058BH         LINE#         481
  C:0597H         LINE#         482
  C:0597H         LINE#         484
  C:059AH         LINE#         485
  C:059AH         LINE#         487
  C:059AH         LINE#         488
  C:059FH         LINE#         489
  C:05A2H         LINE#         490
  C:05A4H         LINE#         491
  C:05ACH         LINE#         492
  C:05AEH         LINE#         493
  C:05B6H         LINE#         494
  C:05B8H         LINE#         495
  C:05C0H         LINE#         496
  C:05C2H         LINE#         497
  C:05CAH         LINE#         498
  C:05CCH         LINE#         499
  C:05D4H         LINE#         500
  C:05D6H         LINE#         501
  C:05DEH         LINE#         502
  C:05E0H         LINE#         503
  C:05E8H         LINE#         504
  C:05EAH         LINE#         505
  C:05F2H         LINE#         506
  C:05F4H         LINE#         507
  C:05FCH         LINE#         508
  C:05FEH         LINE#         509
  C:0606H         LINE#         510
  C:0606H         LINE#         512
BL51 BANKED LINKER/LOCATER V4.02                                                      12/09/2014  20:25:41  PAGE 12


  C:0609H         LINE#         513
  C:0609H         LINE#         515
  C:0609H         LINE#         516
  C:060EH         LINE#         517
  C:0611H         LINE#         518
  C:0616H         LINE#         519
  C:0616H         LINE#         520
  C:0618H         LINE#         521
  C:061BH         LINE#         522
  C:061BH         LINE#         523
  C:061EH         LINE#         524
  C:0625H         LINE#         525
  C:0627H         LINE#         526
  C:0627H         LINE#         527
  C:062AH         LINE#         528
  C:0636H         LINE#         529
  C:0639H         LINE#         532
  -------         ENDPROC       GAME1
  -------         PROC          GAME2
  -------         DO            GAME2
  D:0008H         SYMBOL        slength
  D:000AH         SYMBOL        i
  D:000BH         SYMBOL        exit
  -------         ENDDO         exit
  C:0358H         LINE#         534
  C:0358H         LINE#         535
  C:0358H         LINE#         536
  C:035EH         LINE#         538
  C:0361H         LINE#         539
  C:0366H         LINE#         540
  C:0372H         LINE#         541
  C:0374H         LINE#         542
  C:037AH         LINE#         543
  C:037AH         LINE#         544
  C:0383H         LINE#         545
  C:0383H         LINE#         546
  C:0386H         LINE#         547
  C:0386H         LINE#         548
  C:0389H         LINE#         549
  C:0392H         LINE#         550
  C:0392H         LINE#         551
  C:0394H         LINE#         552
  C:0399H         LINE#         553
  C:0399H         LINE#         554
  C:039CH         LINE#         555
  C:03A4H         LINE#         556
  C:03A6H         LINE#         557
  C:03A8H         LINE#         558
  C:03ABH         LINE#         560
  C:03ABH         LINE#         561
  C:03C3H         LINE#         562
  C:03C3H         LINE#         563
  C:03C5H         LINE#         564
  C:03CEH         LINE#         565
  C:03CEH         LINE#         566
  C:03D0H         LINE#         567
  C:03D5H         LINE#         568
BL51 BANKED LINKER/LOCATER V4.02                                                      12/09/2014  20:25:41  PAGE 13


  C:03D7H         LINE#         569
  C:03DCH         LINE#         570
  C:03E4H         LINE#         571
  C:03E6H         LINE#         572
  C:03E8H         LINE#         573
  C:03EBH         LINE#         574
  C:03EFH         LINE#         576
  C:03EFH         LINE#         577
  C:03EFH         LINE#         578
  C:03EFH         LINE#         844
  C:03F5H         LINE#         845
  C:03F5H         LINE#         846
  C:03FEH         LINE#         847
  C:03FEH         LINE#         848
  C:0401H         LINE#         849
  C:0401H         LINE#         850
  C:0404H         LINE#         851
  C:040DH         LINE#         852
  C:040DH         LINE#         853
  C:040FH         LINE#         854
  C:0414H         LINE#         855
  C:0414H         LINE#         856
  C:0417H         LINE#         857
  C:041FH         LINE#         858
  C:0421H         LINE#         859
  C:0423H         LINE#         860
  C:0426H         LINE#         862
  C:0426H         LINE#         863
  C:043EH         LINE#         864
  C:043EH         LINE#         865
  C:0440H         LINE#         866
  C:0449H         LINE#         867
  C:0449H         LINE#         868
  C:044BH         LINE#         869
  C:0450H         LINE#         870
  C:0452H         LINE#         871
  C:0457H         LINE#         872
  C:045FH         LINE#         873
  C:0461H         LINE#         874
  C:0463H         LINE#         875
  C:0466H         LINE#         876
  C:0469H         LINE#         878
  C:0469H         LINE#         879
  C:0469H         LINE#         880
  C:0469H         LINE#         882
  -------         ENDPROC       GAME2
  -------         PROC          GAME3
  -------         DO            GAME3
  D:0007H         SYMBOL        map
  -------         ENDDO         map
  C:001EH         LINE#         884
  C:001EH         LINE#         885
  C:001EH         LINE#         887
  C:002AH         LINE#         888
  C:002CH         LINE#         889
  C:002FH         LINE#         891
  C:0032H         LINE#         893
BL51 BANKED LINKER/LOCATER V4.02                                                      12/09/2014  20:25:41  PAGE 14


  C:0032H         LINE#         895
  C:0037H         LINE#         896
  C:0037H         LINE#         898
  C:0037H         LINE#         900
  C:003DH         LINE#         901
  C:003DH         LINE#         903
  C:003DH         LINE#         904
  C:0040H         LINE#         905
  C:0040H         LINE#         906
  C:0043H         LINE#         908
  C:0043H         LINE#         909
  C:0048H         LINE#         910
  C:004BH         LINE#         911
  C:004DH         LINE#         912
  C:0050H         LINE#         913
  C:0050H         LINE#         914
  C:0053H         LINE#         915
  C:0053H         LINE#         916
  C:0056H         LINE#         918
  C:0056H         LINE#         919
  C:005BH         LINE#         920
  C:005EH         LINE#         921
  C:0060H         LINE#         922
  C:0063H         LINE#         923
  C:0063H         LINE#         924
  C:0068H         LINE#         925
  C:006EH         LINE#         926
  C:006EH         LINE#         927
  C:0074H         LINE#         928
  C:0074H         LINE#         930
  C:0074H         LINE#         931
  C:0077H         LINE#         932
  C:0077H         LINE#         933
  C:007AH         LINE#         935
  C:007AH         LINE#         936
  C:007FH         LINE#         937
  C:0082H         LINE#         938
  C:0084H         LINE#         939
  C:0087H         LINE#         940
  C:0087H         LINE#         941
  C:008AH         LINE#         942
  C:008AH         LINE#         943
  C:008DH         LINE#         945
  C:008DH         LINE#         946
  C:0092H         LINE#         947
  C:0095H         LINE#         948
  C:0097H         LINE#         949
  C:009AH         LINE#         950
  C:009AH         LINE#         951
  C:009DH         LINE#         952
  C:009DH         LINE#         953
  C:00A0H         LINE#         955
  C:00A0H         LINE#         956
  C:00A5H         LINE#         957
  C:00A8H         LINE#         958
  C:00AAH         LINE#         959
  C:00ADH         LINE#         960
BL51 BANKED LINKER/LOCATER V4.02                                                      12/09/2014  20:25:41  PAGE 15


  C:00ADH         LINE#         961
  C:00B2H         LINE#         962
  C:00B8H         LINE#         963
  C:00B8H         LINE#         964
  C:00BEH         LINE#         965
  C:00BEH         LINE#         967
  C:00BEH         LINE#         968
  C:00C1H         LINE#         969
  C:00C1H         LINE#         970
  C:00C4H         LINE#         972
  C:00C4H         LINE#         973
  C:00C9H         LINE#         974
  C:00CCH         LINE#         975
  C:00CEH         LINE#         976
  C:00D1H         LINE#         977
  C:00D1H         LINE#         978
  C:00D4H         LINE#         979
  C:00D4H         LINE#         980
  C:00D7H         LINE#         982
  C:00D7H         LINE#         983
  C:00DCH         LINE#         984
  C:00DFH         LINE#         985
  C:00E1H         LINE#         986
  C:00E4H         LINE#         987
  C:00E4H         LINE#         988
  C:00E9H         LINE#         989
  C:00EFH         LINE#         990
  C:00EFH         LINE#         991
  C:00F5H         LINE#         992
  C:00F5H         LINE#         994
  C:00F5H         LINE#         995
  C:00F8H         LINE#         996
  C:00F8H         LINE#         997
  C:00FBH         LINE#         999
  C:00FBH         LINE#         1000
  C:0100H         LINE#         1001
  C:0103H         LINE#         1002
  C:0105H         LINE#         1003
  C:0108H         LINE#         1004
  C:0108H         LINE#         1005
  C:010BH         LINE#         1006
  C:010BH         LINE#         1007
  C:010EH         LINE#         1009
  C:010EH         LINE#         1010
  C:0113H         LINE#         1011
  C:0116H         LINE#         1012
  C:0118H         LINE#         1013
  C:011BH         LINE#         1014
  C:011BH         LINE#         1016
  C:011EH         LINE#         1017
  C:011EH         LINE#         1018
  C:0121H         LINE#         1020
  C:0121H         LINE#         1021
  C:0126H         LINE#         1022
  C:0129H         LINE#         1023
  C:012BH         LINE#         1024
  C:012EH         LINE#         1025
BL51 BANKED LINKER/LOCATER V4.02                                                      12/09/2014  20:25:41  PAGE 16


  C:012EH         LINE#         1026
  C:0133H         LINE#         1027
  C:0139H         LINE#         1028
  C:0139H         LINE#         1029
  C:013FH         LINE#         1030
  C:013FH         LINE#         1032
  C:013FH         LINE#         1033
  C:0142H         LINE#         1034
  C:0142H         LINE#         1035
  C:0145H         LINE#         1037
  C:0145H         LINE#         1038
  C:014AH         LINE#         1039
  C:014DH         LINE#         1040
  C:014FH         LINE#         1041
  C:0152H         LINE#         1042
  C:0152H         LINE#         1043
  C:0155H         LINE#         1044
  C:0155H         LINE#         1045
  C:0158H         LINE#         1047
  C:0158H         LINE#         1048
  C:015DH         LINE#         1049
  C:0160H         LINE#         1050
  C:0162H         LINE#         1051
  C:0165H         LINE#         1052
  C:0165H         LINE#         1053
  C:0168H         LINE#         1054
  C:0168H         LINE#         1055
  C:016BH         LINE#         1056
  C:016DH         LINE#         1057
  C:016DH         LINE#         1058
  C:0172H         LINE#         1059
  C:0175H         LINE#         1060
  C:0178H         LINE#         1061
  C:017BH         LINE#         1062
  C:017BH         LINE#         1063
  C:0180H         LINE#         1064
  C:0186H         LINE#         1065
  C:0186H         LINE#         1066
  C:018CH         LINE#         1067
  C:018CH         LINE#         1069
  C:018CH         LINE#         1070
  C:018FH         LINE#         1071
  C:018FH         LINE#         1072
  C:0192H         LINE#         1074
  C:0192H         LINE#         1075
  C:0197H         LINE#         1076
  C:019AH         LINE#         1077
  C:019CH         LINE#         1078
  C:019FH         LINE#         1079
  C:019FH         LINE#         1080
  C:01A2H         LINE#         1081
  C:01A2H         LINE#         1082
  C:01A5H         LINE#         1084
  C:01A5H         LINE#         1085
  C:01AAH         LINE#         1086
  C:01ADH         LINE#         1087
  C:01AFH         LINE#         1088
BL51 BANKED LINKER/LOCATER V4.02                                                      12/09/2014  20:25:41  PAGE 17


  C:01B2H         LINE#         1089
  C:01B2H         LINE#         1090
  C:01B7H         LINE#         1091
  C:01BDH         LINE#         1092
  C:01BDH         LINE#         1093
  C:01C3H         LINE#         1094
  C:01C3H         LINE#         1096
  C:01C3H         LINE#         1097
  C:01C6H         LINE#         1098
  C:01C6H         LINE#         1099
  C:01C9H         LINE#         1100
  C:01CBH         LINE#         1101
  C:01CBH         LINE#         1102
  C:01D0H         LINE#         1103
  C:01D3H         LINE#         1104
  C:01D6H         LINE#         1105
  C:01D9H         LINE#         1106
  C:01D9H         LINE#         1107
  C:01DCH         LINE#         1108
  C:01DCH         LINE#         1109
  C:01DFH         LINE#         1111
  C:01DFH         LINE#         1112
  C:01E4H         LINE#         1113
  C:01E7H         LINE#         1114
  C:01E9H         LINE#         1115
  C:01ECH         LINE#         1116
  C:01ECH         LINE#         1117
  C:01EFH         LINE#         1118
  C:01EFH         LINE#         1119
  C:01F2H         LINE#         1121
  C:01F2H         LINE#         1122
  C:01F7H         LINE#         1123
  C:01FAH         LINE#         1124
  C:01FCH         LINE#         1125
  C:01FFH         LINE#         1126
  C:01FFH         LINE#         1127
  C:0204H         LINE#         1128
  C:020AH         LINE#         1129
  C:020AH         LINE#         1130
  C:020FH         LINE#         1131
  C:020FH         LINE#         1132
  C:0212H         LINE#         1133
  C:0212H         LINE#         1134
  C:0217H         LINE#         1135
  C:021AH         LINE#         1136
  C:021CH         LINE#         1137
  C:021FH         LINE#         1138
  C:0222H         LINE#         1139
  C:0222H         LINE#         1140
  C:0227H         LINE#         1141
  C:0227H         LINE#         1142
  C:022AH         LINE#         1143
  C:022AH         LINE#         1144
  C:022FH         LINE#         1145
  C:0232H         LINE#         1146
  C:0234H         LINE#         1147
  C:0237H         LINE#         1149
BL51 BANKED LINKER/LOCATER V4.02                                                      12/09/2014  20:25:41  PAGE 18


  C:0237H         LINE#         1151
  C:023EH         LINE#         1152
  C:023EH         LINE#         1423
  -------         ENDPROC       GAME3
  -------         PROC          BUZZ
  -------         DO            BUZZ
  D:0008H         SYMBOL        slength
  -------         ENDDO         slength
  C:0871H         LINE#         1425
  C:0871H         LINE#         1426
  C:0871H         LINE#         1427
  C:0877H         LINE#         1428
  C:0877H         LINE#         1429
  C:0877H         LINE#         1430
  C:0879H         LINE#         1431
  C:087EH         LINE#         1432
  C:0886H         LINE#         1433
  C:088FH         LINE#         1434
  C:0894H         LINE#         1435
  C:0896H         LINE#         1438
  -------         ENDPROC       BUZZ
  -------         PROC          BUZZWIN
  -------         DO            BUZZWIN
  D:0008H         SYMBOL        slength
  -------         ENDDO         slength
  C:0897H         LINE#         1439
  C:0897H         LINE#         1440
  C:0897H         LINE#         1441
  C:089DH         LINE#         1442
  C:089DH         LINE#         1443
  C:089DH         LINE#         1444
  C:089FH         LINE#         1445
  C:08A4H         LINE#         1446
  C:08ACH         LINE#         1447
  C:08B5H         LINE#         1448
  C:08BAH         LINE#         1449
  C:08BCH         LINE#         1452
  -------         ENDPROC       BUZZWIN
  -------         PROC          _G1COMPARE
  D:0008H         SYMBOL        r
  D:0009H         SYMBOL        g
  -------         DO            g
  D:000AH         SYMBOL        slength
  D:000CH         SYMBOL        q
  D:000EH         SYMBOL        gue
  -------         ENDDO         gue
  C:046AH         LINE#         1454
  C:046EH         LINE#         1455
  C:046EH         LINE#         1456
  C:0474H         LINE#         1457
  C:0479H         LINE#         1458
  C:047CH         LINE#         1460
  C:0482H         LINE#         1461
  C:0482H         LINE#         1462
  C:048EH         LINE#         1463
  C:048EH         LINE#         1464
  C:0493H         LINE#         1465
BL51 BANKED LINKER/LOCATER V4.02                                                      12/09/2014  20:25:41  PAGE 19


  C:0498H         LINE#         1466
  C:049BH         LINE#         1467
  C:04A0H         LINE#         1468
  C:04A9H         LINE#         1469
  C:04A9H         LINE#         1470
  C:04A9H         LINE#         1471
  C:04ACH         LINE#         1472
  C:04AEH         LINE#         1473
  C:04B3H         LINE#         1474
  C:04BBH         LINE#         1475
  C:04BDH         LINE#         1476
  C:04BFH         LINE#         1477
  C:04C4H         LINE#         1478
  C:04C7H         LINE#         1479
  C:04C9H         LINE#         1480
  C:04E6H         LINE#         1481
  C:04E6H         LINE#         1483
  C:04E6H         LINE#         1485
  C:04F3H         LINE#         1486
  C:04F3H         LINE#         1487
  C:04F5H         LINE#         1488
  C:04F7H         LINE#         1489
  C:04F9H         LINE#         1490
  C:04FBH         LINE#         1491
  C:04FDH         LINE#         1492
  C:0506H         LINE#         1493
  C:0506H         LINE#         1494
  C:0508H         LINE#         1495
  C:050DH         LINE#         1496
  C:0515H         LINE#         1497
  C:0517H         LINE#         1498
  C:051CH         LINE#         1499
  C:051EH         LINE#         1500
  C:0520H         LINE#         1501
  C:0522H         LINE#         1502
  C:0524H         LINE#         1503
  C:0526H         LINE#         1504
  C:0528H         LINE#         1505
  C:0528H         LINE#         1507
  C:0535H         LINE#         1508
  C:0535H         LINE#         1509
  C:0537H         LINE#         1510
  C:0539H         LINE#         1511
  C:053BH         LINE#         1512
  C:053DH         LINE#         1513
  C:053FH         LINE#         1514
  C:0541H         LINE#         1515
  C:0543H         LINE#         1516
  C:054CH         LINE#         1517
  C:054CH         LINE#         1518
  C:054EH         LINE#         1519
  C:0553H         LINE#         1520
  C:055BH         LINE#         1521
  C:055DH         LINE#         1522
  C:0562H         LINE#         1523
  C:0564H         LINE#         1524
  C:0566H         LINE#         1525
BL51 BANKED LINKER/LOCATER V4.02                                                      12/09/2014  20:25:41  PAGE 20


  C:0568H         LINE#         1526
  C:056AH         LINE#         1527
  C:056CH         LINE#         1528
  C:056EH         LINE#         1529
  C:0570H         LINE#         1530
  C:0572H         LINE#         1531
  C:0572H         LINE#         1534
  -------         ENDPROC       _G1COMPARE
  -------         ENDMOD        JOELJECT

  -------         MODULE        ?C?SIDIV
  C:063AH         PUBLIC        ?C?SIDIV
  -------         ENDMOD        ?C?SIDIV

  -------         MODULE        ?C?SLCMP
  C:0670H         PUBLIC        ?C?SLCMP
  -------         ENDMOD        ?C?SLCMP

  -------         MODULE        RAND
  D:0021H         PUBLIC        ?SRAND?BYTE
  C:07BDH         PUBLIC        RAND
  C:07F4H         PUBLIC        _SRAND
  -------         ENDMOD        RAND

  -------         MODULE        ?C?UIDIV
  C:0686H         PUBLIC        ?C?UIDIV
  -------         ENDMOD        ?C?UIDIV

LINK/LOCATE RUN COMPLETE.  0 WARNING(S),  0 ERROR(S)
